; Function Attrs: nounwind uwtable
define void @Abc_NtkReverseTopoOrder(ptr noundef captures(none) initializes((424, 432)) %0) local_unnamed_addr #0 {
  %2 = getelementptr i8, ptr %0, i64 32
  %.val24 = load ptr, ptr %2, align 8
  %3 = getelementptr i8, ptr %.val24, i64 4
  %.val24.val = load i32, ptr %3, align 4
  %4 = mul nsw i32 %.val24.val, 10
  %5 = tail call noalias dereferenceable_or_null(16) ptr @malloc(i64 noundef 16) #30
  %6 = add i32 %4, -1
  %or.cond.i = icmp ult i32 %6, 15
  %spec.store.select.i = select i1 %or.cond.i, i32 16, i32 %4
  %7 = getelementptr inbounds nuw i8, ptr %5, i64 4
  store i32 %spec.store.select.i, ptr %5, align 8
  %.not.i = icmp eq i32 %spec.store.select.i, 0
  br i1 %.not.i, label %Vec_IntAlloc.exit, label %8

8:                                                ; preds = %1
  %9 = sext i32 %spec.store.select.i to i64
  %10 = shl nsw i64 %9, 2
  %11 = tail call noalias ptr @malloc(i64 noundef %10) #30
  br label %Vec_IntAlloc.exit

Vec_IntAlloc.exit:                                ; preds = %1, %8
  %12 = phi ptr [ %11, %8 ], [ null, %1 ]
  %13 = getelementptr inbounds nuw i8, ptr %5, i64 8
  store ptr %12, ptr %13, align 8
  %14 = getelementptr inbounds nuw i8, ptr %0, i64 424
  store ptr %5, ptr %14, align 8
  %.val23.val = load i32, ptr %3, align 4
  %15 = shl nsw i32 %.val23.val, 1
  %.not.i.i = icmp slt i32 %spec.store.select.i, %15
  br i1 %.not.i.i, label %16, label %Vec_IntGrow.exit.i

16:                                               ; preds = %Vec_IntAlloc.exit
  %.not9.i.i = icmp eq ptr %12, null
  %17 = sext i32 %15 to i64
  %18 = shl nsw i64 %17, 2
  br i1 %.not9.i.i, label %21, label %19

19:                                               ; preds = %16
  %20 = tail call ptr @realloc(ptr noundef nonnull %12, i64 noundef %18) #29
  br label %23

21:                                               ; preds = %16
  %22 = tail call noalias ptr @malloc(i64 noundef %18) #30
  br label %23

23:                                               ; preds = %21, %19
  %24 = phi ptr [ %20, %19 ], [ %22, %21 ]
  store ptr %24, ptr %13, align 8
  store i32 %15, ptr %5, align 8
  br label %Vec_IntGrow.exit.i

Vec_IntGrow.exit.i:                               ; preds = %23, %Vec_IntAlloc.exit
  %25 = icmp sgt i32 %.val23.val, 0
  br i1 %25, label %.lr.ph.i, label %Vec_IntFill.exit

.lr.ph.i:                                         ; preds = %Vec_IntGrow.exit.i
  %wide.trip.count.i = zext nneg i32 %15 to i64
  br label %26

26:                                               ; preds = %26, %.lr.ph.i
  %indvars.iv.i = phi i64 [ 0, %.lr.ph.i ], [ %indvars.iv.next.i, %26 ]
  %27 = load ptr, ptr %13, align 8
  %28 = getelementptr inbounds nuw i32, ptr %27, i64 %indvars.iv.i
  store i32 0, ptr %28, align 4
  %indvars.iv.next.i = add nuw nsw i64 %indvars.iv.i, 1
  %exitcond.not.i = icmp eq i64 %indvars.iv.next.i, %wide.trip.count.i
  br i1 %exitcond.not.i, label %Vec_IntFill.exit.loopexit, label %26, !llvm.loop !50

Vec_IntFill.exit.loopexit:                        ; preds = %26
  %.pre = load ptr, ptr %2, align 8
  br label %Vec_IntFill.exit

Vec_IntFill.exit:                                 ; preds = %Vec_IntFill.exit.loopexit, %Vec_IntGrow.exit.i
  %29 = phi ptr [ %.pre, %Vec_IntFill.exit.loopexit ], [ %.val24, %Vec_IntGrow.exit.i ]
  store i32 %15, ptr %7, align 4
  %30 = getelementptr i8, ptr %29, i64 4
  %.val30 = load i32, ptr %30, align 4
  %31 = icmp sgt i32 %.val30, 0
  br i1 %31, label %.lr.ph, label %.critedge

.lr.ph:                                           ; preds = %Vec_IntFill.exit
  %32 = getelementptr inbounds nuw i8, ptr %0, i64 232
  %33 = getelementptr inbounds nuw i8, ptr %0, i64 224
  %34 = getelementptr inbounds nuw i8, ptr %0, i64 228
  %35 = getelementptr inbounds nuw i8, ptr %0, i64 216
  br label %36

36:                                               ; preds = %.lr.ph, %68
  %37 = phi ptr [ %29, %.lr.ph ], [ %69, %68 ]
  %indvars.iv = phi i64 [ 0, %.lr.ph ], [ %indvars.iv.next, %68 ]
  %.val32 = phi i32 [ %.val30, %.lr.ph ], [ %.val, %68 ]
  %38 = getelementptr i8, ptr %37, i64 8
  %.val19.val = load ptr, ptr %38, align 8
  %39 = getelementptr inbounds nuw ptr, ptr %.val19.val, i64 %indvars.iv
  %40 = load ptr, ptr %39, align 8
  %41 = icmp eq ptr %40, null
  br i1 %41, label %68, label %42

42:                                               ; preds = %36
  %43 = getelementptr i8, ptr %40, i64 20
  %.val20 = load i32, ptr %43, align 4
  %44 = and i32 %.val20, 15
  %.not = icmp eq i32 %44, 7
  br i1 %.not, label %45, label %68

45:                                               ; preds = %42
  %.val27 = load ptr, ptr %40, align 8
  %46 = getelementptr i8, ptr %40, i64 16
  %.val28 = load i32, ptr %46, align 8
  %47 = getelementptr i8, ptr %.val27, i64 424
  %.val27.val = load ptr, ptr %47, align 8
  %48 = getelementptr i8, ptr %.val27.val, i64 8
  %.val27.val.val = load ptr, ptr %48, align 8
  %49 = shl i32 %.val28, 1
  %50 = sext i32 %49 to i64
  %51 = getelementptr inbounds i32, ptr %.val27.val.val, i64 %50
  %52 = load i32, ptr %51, align 4
  %.not18 = icmp eq i32 %52, 0
  br i1 %.not18, label %53, label %68

53:                                               ; preds = %45
  %54 = load ptr, ptr %32, align 8
  %.not.i29 = icmp eq ptr %54, null
  br i1 %.not.i29, label %55, label %Abc_NtkIncrementTravId.exit

55:                                               ; preds = %53
  %56 = add nsw i32 %.val32, 500
  %57 = load i32, ptr %33, align 8
  %.not.i.i.i = icmp slt i32 %57, %56
  br i1 %.not.i.i.i, label %58, label %Vec_IntGrow.exit.i.i

58:                                               ; preds = %55
  %59 = sext i32 %56 to i64
  %60 = shl nsw i64 %59, 2
  %61 = tail call noalias ptr @malloc(i64 noundef %60) #30
  store ptr %61, ptr %32, align 8
  store i32 %56, ptr %33, align 8
  br label %Vec_IntGrow.exit.i.i

Vec_IntGrow.exit.i.i:                             ; preds = %58, %55
  %62 = icmp sgt i32 %.val32, -500
  br i1 %62, label %.lr.ph.i.i, label %Vec_IntFill.exit.i

.lr.ph.i.i:                                       ; preds = %Vec_IntGrow.exit.i.i
  %wide.trip.count.i.i = zext nneg i32 %56 to i64
  br label %63

63:                                               ; preds = %63, %.lr.ph.i.i
  %indvars.iv.i.i = phi i64 [ 0, %.lr.ph.i.i ], [ %indvars.iv.next.i.i, %63 ]
  %64 = load ptr, ptr %32, align 8
  %65 = getelementptr inbounds nuw i32, ptr %64, i64 %indvars.iv.i.i
  store i32 0, ptr %65, align 4
  %indvars.iv.next.i.i = add nuw nsw i64 %indvars.iv.i.i, 1
  %exitcond.not.i.i = icmp eq i64 %indvars.iv.next.i.i, %wide.trip.count.i.i
  br i1 %exitcond.not.i.i, label %Vec_IntFill.exit.i, label %63, !llvm.loop !50

Vec_IntFill.exit.i:                               ; preds = %63, %Vec_IntGrow.exit.i.i
  store i32 %56, ptr %34, align 4
  br label %Abc_NtkIncrementTravId.exit

Abc_NtkIncrementTravId.exit:                      ; preds = %53, %Vec_IntFill.exit.i
  %66 = load i32, ptr %35, align 8
  %67 = add nsw i32 %66, 1
  store i32 %67, ptr %35, align 8
  tail call void @Abc_NtkReverseTopoOrder_rec(ptr noundef nonnull %40, i32 noundef 1)
  %.pre34 = load ptr, ptr %2, align 8
  br label %68

68:                                               ; preds = %Abc_NtkIncrementTravId.exit, %42, %36, %45
  %69 = phi ptr [ %.pre34, %Abc_NtkIncrementTravId.exit ], [ %37, %42 ], [ %37, %36 ], [ %37, %45 ]
  %indvars.iv.next = add nuw nsw i64 %indvars.iv, 1
  %70 = getelementptr i8, ptr %69, i64 4
  %.val = load i32, ptr %70, align 4
  %71 = sext i32 %.val to i64
  %72 = icmp slt i64 %indvars.iv.next, %71
  br i1 %72, label %36, label %.critedge, !llvm.loop !128

.critedge:                                        ; preds = %68, %Vec_IntFill.exit
  %73 = getelementptr i8, ptr %0, i64 124
  %.val26 = load i32, ptr %73, align 4
  %74 = load ptr, ptr %14, align 8
  %75 = getelementptr i8, ptr %74, i64 4
  %.val21 = load i32, ptr %75, align 4
  %76 = sitofp i32 %.val21 to double
  %77 = sitofp i32 %.val26 to double
  %78 = fdiv double %76, %77
  %79 = tail call i32 (ptr, ...) @printf(ptr noundef nonnull dereferenceable(1) @.str.22, i32 noundef %.val26, i32 noundef %.val21, double noundef %78)
  ret void
}